; ModuleID = '3/81.c'
source_filename = "3/81.c"
target datalayout = "e-m:e-p270:32:32-p271:32:32-p272:64:64-i64:64-f80:128-n8:16:32:64-S128"
target triple = "x86_64-pc-linux-gnu"

@.str = private unnamed_addr constant [5 x i8] c"%d%d\00", align 1
@.str.1 = private unnamed_addr constant [3 x i8] c"%d\00", align 1
@.str.2 = private unnamed_addr constant [5 x i8] c"yes\0A\00", align 1
@.str.3 = private unnamed_addr constant [4 x i8] c"no\0A\00", align 1

; Function Attrs: noinline nounwind uwtable
define dso_local i32 @main() #0 {
  %1 = alloca i32, align 4
  %2 = alloca i32, align 4
  %3 = alloca i32, align 4
  %4 = alloca i32, align 4
  %5 = alloca i32*, align 8
  %6 = alloca i32, align 4
  %7 = alloca i32, align 4
  store i32 0, i32* %1, align 4
  %8 = call i32 (i8*, ...) @__isoc99_scanf(i8* getelementptr inbounds ([5 x i8], [5 x i8]* @.str, i64 0, i64 0), i32* %2, i32* %3)
  %9 = load i32, i32* %2, align 4
  %10 = sext i32 %9 to i64
  %11 = mul i64 4, %10
  %12 = call noalias i8* @malloc(i64 %11) #3
  %13 = bitcast i8* %12 to i32*
  store i32* %13, i32** %5, align 8
  store i32 0, i32* %6, align 4
  br label %14

14:                                               ; preds = %24, %0
  %15 = load i32, i32* %6, align 4
  %16 = load i32, i32* %2, align 4
  %17 = icmp slt i32 %15, %16
  br i1 %17, label %18, label %27

18:                                               ; preds = %14
  %19 = load i32*, i32** %5, align 8
  %20 = load i32, i32* %6, align 4
  %21 = sext i32 %20 to i64
  %22 = getelementptr inbounds i32, i32* %19, i64 %21
  %23 = call i32 (i8*, ...) @__isoc99_scanf(i8* getelementptr inbounds ([3 x i8], [3 x i8]* @.str.1, i64 0, i64 0), i32* %22)
  br label %24

24:                                               ; preds = %18
  %25 = load i32, i32* %6, align 4
  %26 = add nsw i32 %25, 1
  store i32 %26, i32* %6, align 4
  br label %14

27:                                               ; preds = %14
  store i32 0, i32* %6, align 4
  br label %28

28:                                               ; preds = %65, %27
  %29 = load i32, i32* %6, align 4
  %30 = load i32, i32* %2, align 4
  %31 = icmp slt i32 %29, %30
  br i1 %31, label %32, label %68

32:                                               ; preds = %28
  %33 = load i32, i32* %3, align 4
  %34 = load i32*, i32** %5, align 8
  %35 = load i32, i32* %6, align 4
  %36 = sext i32 %35 to i64
  %37 = getelementptr inbounds i32, i32* %34, i64 %36
  %38 = load i32, i32* %37, align 4
  %39 = sub nsw i32 %33, %38
  store i32 %39, i32* %4, align 4
  store i32 0, i32* %7, align 4
  br label %40

40:                                               ; preds = %61, %32
  %41 = load i32, i32* %7, align 4
  %42 = load i32, i32* %6, align 4
  %43 = icmp ne i32 %41, %42
  br i1 %43, label %44, label %48

44:                                               ; preds = %40
  %45 = load i32, i32* %7, align 4
  %46 = load i32, i32* %2, align 4
  %47 = icmp slt i32 %45, %46
  br label %48

48:                                               ; preds = %44, %40
  %49 = phi i1 [ false, %40 ], [ %47, %44 ]
  br i1 %49, label %50, label %64

50:                                               ; preds = %48
  %51 = load i32, i32* %4, align 4
  %52 = load i32*, i32** %5, align 8
  %53 = load i32, i32* %7, align 4
  %54 = sext i32 %53 to i64
  %55 = getelementptr inbounds i32, i32* %52, i64 %54
  %56 = load i32, i32* %55, align 4
  %57 = icmp eq i32 %51, %56
  br i1 %57, label %58, label %60

58:                                               ; preds = %50
  %59 = call i32 (i8*, ...) @printf(i8* getelementptr inbounds ([5 x i8], [5 x i8]* @.str.2, i64 0, i64 0))
  store i32 0, i32* %1, align 4
  br label %70

60:                                               ; preds = %50
  br label %61

61:                                               ; preds = %60
  %62 = load i32, i32* %7, align 4
  %63 = add nsw i32 %62, 1
  store i32 %63, i32* %7, align 4
  br label %40

64:                                               ; preds = %48
  br label %65

65:                                               ; preds = %64
  %66 = load i32, i32* %6, align 4
  %67 = add nsw i32 %66, 1
  store i32 %67, i32* %6, align 4
  br label %28

68:                                               ; preds = %28
  %69 = call i32 (i8*, ...) @printf(i8* getelementptr inbounds ([4 x i8], [4 x i8]* @.str.3, i64 0, i64 0))
  store i32 0, i32* %1, align 4
  br label %70

70:                                               ; preds = %68, %58
  %71 = load i32, i32* %1, align 4
  ret i32 %71
}

declare dso_local i32 @__isoc99_scanf(i8*, ...) #1

; Function Attrs: nounwind
declare dso_local noalias i8* @malloc(i64) #2

declare dso_local i32 @printf(i8*, ...) #1


!llvm.module.flags = !{!0}
!llvm.ident = !{!1}

!0 = !{i32 1, !"wchar_size", i32 4}
!1 = !{!"clang version 10.0.0-4ubuntu1 "}
